
a.out:     file format elf32-i386

Contents of section .interp:
 8048114 2f6c6962 2f6c642d 6c696e75 782e736f  /lib/ld-linux.so
 8048124 2e3200                               .2.             
Contents of section .note.ABI-tag:
 8048128 04000000 10000000 01000000 474e5500  ............GNU.
 8048138 00000000 02000000 06000000 12000000  ................
Contents of section .note.gnu.build-id:
 8048148 04000000 14000000 03000000 474e5500  ............GNU.
 8048158 0e426178 7a66bb36 c9cbc5c4 b89d9a5d  .Baxzf.6.......]
 8048168 2903b34c                             )..L            
Contents of section .hash:
 804816c 03000000 05000000 01000000 02000000  ................
 804817c 03000000 00000000 00000000 00000000  ................
 804818c 04000000 00000000                    ........        
Contents of section .gnu.hash:
 8048194 02000000 04000000 01000000 05000000  ................
 80481a4 00200020 00000000 04000000 ad4be3c0  . . .........K..
Contents of section .dynsym:
 80481b4 00000000 00000000 00000000 00000000  ................
 80481c4 01000000 00000000 00000000 20000000  ............ ...
 80481d4 30000000 00000000 00000000 12000000  0...............
 80481e4 29000000 00000000 00000000 12000000  )...............
 80481f4 1a000000 3c850408 04000000 11001000  ....<...........
Contents of section .dynstr:
 8048204 005f5f67 6d6f6e5f 73746172 745f5f00  .__gmon_start__.
 8048214 6c696263 2e736f2e 36005f49 4f5f7374  libc.so.6._IO_st
 8048224 64696e5f 75736564 00707269 6e746600  din_used.printf.
 8048234 5f5f6c69 62635f73 74617274 5f6d6169  __libc_start_mai
 8048244 6e00474c 4942435f 322e3000           n.GLIBC_2.0.    
Contents of section .gnu.version:
 8048250 00000000 02000200 0100               ..........      
Contents of section .gnu.version_r:
 804825c 01000100 10000000 10000000 00000000  ................
 804826c 1069690d 00000200 42000000 00000000  .ii.....B.......
Contents of section .rel.dyn:
 804827c 3c960408 06010000                    <.......        
Contents of section .rel.plt:
 8048284 4c960408 07010000 50960408 07020000  L.......P.......
 8048294 54960408 07030000                    T.......        
Contents of section .init:
 804829c 5589e553 83ec04e8 00000000 5b81c398  U..S........[...
 80482ac 1300008b 93fcffff ff85d274 05e81e00  ...........t....
 80482bc 0000e8dd 000000e8 28020000 585bc9c3  ........(...X[..
Contents of section .plt:
 80482cc ff354496 0408ff25 48960408 00000000  .5D....%H.......
 80482dc ff254c96 04086800 000000e9 e0ffffff  .%L...h.........
 80482ec ff255096 04086808 000000e9 d0ffffff  .%P...h.........
 80482fc ff255496 04086810 000000e9 c0ffffff  .%T...h.........
Contents of section .text:
 8048310 31ed5e89 e183e4f0 50545268 80840408  1.^.....PTRh....
 8048320 68908404 08515668 13840408 e8bbffff  h....QVh........
 8048330 fff49090 90909090 90909090 90909090  ................
 8048340 5589e553 83ec0480 3d609604 0800753f  U..S....=`....u?
 8048350 a1649604 08bb6495 040881eb 60950408  .d....d.....`...
 8048360 c1fb0283 eb0139d8 731e8db6 00000000  ......9.s.......
 8048370 83c001a3 64960408 ff148560 950408a1  ....d......`....
 8048380 64960408 39d872e8 c6056096 04080183  d...9.r...`.....
 8048390 c4045b5d c38d7426 008dbc27 00000000  ..[]..t&...'....
 80483a0 5589e583 ec18a168 95040885 c07412b8  U......h.....t..
 80483b0 00000000 85c07409 c7042468 950408ff  ......t...$h....
 80483c0 d0c9c390 5589e58b 450c8b55 088d0402  ....U...E..U....
 80483d0 5dc35589 e58b4508 89c2c1ea 1f8d0402  ].U...E.........
 80483e0 d1f85dc3 5589e583 ec088b45 083b450c  ..].U......E.;E.
 80483f0 7d148b45 0c894424 048b4508 890424e8  }..E..D$..E...$.
 8048400 c0ffffff eb0b8b45 08890424 e8c1ffff  .......E...$....
 8048410 ffc9c355 89e583e4 f083ec20 837d0803  ...U....... .}..
 8048420 75488b45 0c83c008 8b000fb6 000fbed0  uH.E............
 8048430 8b450c83 c0048b00 0fb6000f bec08954  .E.............T
 8048440 24048904 24e89aff ffff8944 241cb840  $...$......D$..@
 8048450 8504088b 54241c89 54240489 0424e899  ....T$..T$...$..
 8048460 feffffb8 00000000 eb05b801 000000c9  ................
 8048470 c3909090 90909090 90909090 90909090  ................
 8048480 5589e55d c38d7426 008dbc27 00000000  U..]..t&...'....
 8048490 5589e557 5653e84f 00000081 c3a51100  U..WVS.O........
 80484a0 0083ec1c e8f3fdff ff8dbb18 ffffff8d  ................
 80484b0 8318ffff ff29c7c1 ff0285ff 742431f6  .....)......t$1.
 80484c0 8b451089 4424088b 450c8944 24048b45  .E..D$..E..D$..E
 80484d0 08890424 ff94b318 ffffff83 c60139fe  ...$..........9.
 80484e0 72de83c4 1c5b5e5f 5dc38b1c 24c39090  r....[^_]...$...
 80484f0 5589e553 83ec04a1 58950408 83f8ff74  U..S....X......t
 8048500 13bb5895 04086690 83eb04ff d08b0383  ..X...f.........
 8048510 f8ff75f4 83c4045b 5dc39090           ..u....[]...    
Contents of section .fini:
 804851c 5589e553 83ec04e8 00000000 5b81c318  U..S........[...
 804852c 110000e8 0cfeffff 595bc9c3           ........Y[..    
Contents of section .rodata:
 8048538 03000000 01000200 54686520 76616c75  ........The valu
 8048548 65206973 2025640a 00                 e is %d..       
Contents of section .eh_frame:
 8048554 00000000                             ....            
Contents of section .ctors:
 8049558 ffffffff 00000000                    ........        
Contents of section .dtors:
 8049560 ffffffff 00000000                    ........        
Contents of section .jcr:
 8049568 00000000                             ....            
Contents of section .dynamic:
 804956c 01000000 10000000 0c000000 9c820408  ................
 804957c 0d000000 1c850408 04000000 6c810408  ............l...
 804958c f5feff6f 94810408 05000000 04820408  ...o............
 804959c 06000000 b4810408 0a000000 4c000000  ............L...
 80495ac 0b000000 10000000 15000000 00000000  ................
 80495bc 03000000 40960408 02000000 18000000  ....@...........
 80495cc 14000000 11000000 17000000 84820408  ................
 80495dc 11000000 7c820408 12000000 08000000  ....|...........
 80495ec 13000000 08000000 feffff6f 5c820408  ...........o\...
 80495fc ffffff6f 01000000 f0ffff6f 50820408  ...o.......oP...
 804960c 00000000 00000000 00000000 00000000  ................
 804961c 00000000 00000000 00000000 00000000  ................
 804962c 00000000 00000000 00000000 00000000  ................
Contents of section .got:
 804963c 00000000                             ....            
Contents of section .got.plt:
 8049640 6c950408 00000000 00000000 e2820408  l...............
 8049650 f2820408 02830408                    ........        
Contents of section .data:
 8049658 00000000 00000000                    ........        
Contents of section .comment:
 0000 4743433a 20284465 6269616e 20342e34  GCC: (Debian 4.4
 0010 2e352d38 2920342e 342e3500           .5-8) 4.4.5.    
Contents of section .debug_aranges:
 0000 1c000000 02000000 00000400 00000000  ................
 0010 c4830408 ad000000 00000000 00000000  ................
Contents of section .debug_pubnames:
 0000 35000000 02000000 00006a01 00007b00  5.........j...{.
 0010 00007375 6d00b100 00006861 6c766500  ..sum.....halve.
 0020 db000000 646f7374 75666600 11010000  ....dostuff.....
 0030 6d61696e 00000000 00                 main.....       
Contents of section .debug_info:
 0000 66010000 02000000 00000401 0e000000  f...............
 0010 01390000 00710000 00c48304 08718404  .9...q.......q..
 0020 08000000 00020407 2c000000 02010846  ........,......F
 0030 00000002 02075e00 00000204 07270000  ......^......'..
 0040 00020106 48000000 020205a9 00000003  ....H...........
 0050 0405696e 74000208 05000000 00020807  ..int...........
 0060 22000000 02040505 00000004 04070504  "...............
 0070 74000000 0201064f 00000006 0173756d  t......O.....sum
 0080 00010301 4f000000 c4830408 d2830408  ....O...........
 0090 00000000 b1000000 07610001 034f0000  .........a...O..
 00a0 00029100 07620001 034f0000 00029104  .....b...O......
 00b0 00080140 00000001 07014f00 0000d283  ...@......O.....
 00c0 0408e483 04082c00 0000db00 00000761  ......,........a
 00d0 0001074f 00000002 91000008 011a0000  ...O............
 00e0 00010b01 4f000000 e4830408 13840408  ....O...........
 00f0 58000000 11010000 07610001 0b4f0000  X........a...O..
 0100 00029100 07620001 0b4f0000 00029104  .....b...O......
 0110 00080154 00000001 13014f00 00001384  ...T......O.....
 0120 04087184 04088400 00006301 00000959  ..q.......c....Y
 0130 00000001 134f0000 00029100 09b30000  .....O..........
 0140 00011363 01000002 91040a22 84040863  ...c......."...c
 0150 8404080b 72657400 01164f00 00000274  ....ret...O....t
 0160 1c000005 046e0000 0000               .....n....      
Contents of section .debug_abbrev:
 0000 01110125 0e130b03 0e1b0e11 01120110  ...%............
 0010 06000002 24000b0b 3e0b030e 00000324  ....$...>......$
 0020 000b0b3e 0b030800 00042400 0b0b3e0b  ...>......$...>.
 0030 0000050f 000b0b49 13000006 2e013f0c  .......I......?.
 0040 03083a0b 3b0b270c 49131101 12014006  ..:.;.'.I.....@.
 0050 01130000 07050003 083a0b3b 0b491302  .........:.;.I..
 0060 0a000008 2e013f0c 030e3a0b 3b0b270c  ......?...:.;.'.
 0070 49131101 12014006 01130000 09050003  I.....@.........
 0080 0e3a0b3b 0b491302 0a00000a 0b011101  .:.;.I..........
 0090 12010000 0b340003 083a0b3b 0b491302  .....4...:.;.I..
 00a0 0a000000                             ....            
Contents of section .debug_line:
 0000 45000000 02001d00 00000101 fb0e0d00  E...............
 0010 01010101 00000001 00000100 706f6332  ............poc2
 0020 2e630000 00000000 0502c483 0408153d  .c.............=
 0030 91303dc9 30678308 3ead3191 67022c13  .0=.0g..>.1.g.,.
 0040 084f725b 02020001 01                 .Or[.....       
Contents of section .debug_frame:
 0000 10000000 ffffffff 0100017c 080c0404  ...........|....
 0010 88010000 14000000 00000000 c4830408  ................
 0020 0e000000 410e0842 85020d05 14000000  ....A..B........
 0030 00000000 d2830408 12000000 410e0842  ............A..B
 0040 85020d05 14000000 00000000 e4830408  ................
 0050 2f000000 410e0842 85020d05 14000000  /...A..B........
 0060 00000000 13840408 5e000000 410e0842  ........^...A..B
 0070 85020d05                             ....            
Contents of section .debug_str:
 0000 6c6f6e67 206c6f6e 6720696e 7400474e  long long int.GN
 0010 55204320 342e342e 3500646f 73747566  U C 4.4.5.dostuf
 0020 66006c6f 6e67206c 6f6e6720 756e7369  f.long long unsi
 0030 676e6564 20696e74 00706f63 322e6300  gned int.poc2.c.
 0040 68616c76 6500756e 7369676e 65642063  halve.unsigned c
 0050 68617200 6d61696e 00617267 63007368  har.main.argc.sh
 0060 6f727420 756e7369 676e6564 20696e74  ort unsigned int
 0070 002f686f 6d652f6d 656e6778 692f636f  ./home/mengxi/co
 0080 64652f62 79746563 6173742d 72756e74  de/bytecast-runt
 0090 696d652f 52756e54 696d652f 7372632f  ime/RunTime/src/
 00a0 54657374 43617365 0073686f 72742069  TestCase.short i
 00b0 6e740061 72677600                    nt.argv.        
Contents of section .debug_loc:
 0000 00000000 01000000 02007404 01000000  ..........t.....
 0010 03000000 02007408 03000000 0e000000  ......t.........
 0020 02007508 00000000 00000000 0e000000  ..u.............
 0030 0f000000 02007404 0f000000 11000000  ......t.........
 0040 02007408 11000000 20000000 02007508  ..t..... .....u.
 0050 00000000 00000000 20000000 21000000  ........ ...!...
 0060 02007404 21000000 23000000 02007408  ..t.!...#.....t.
 0070 23000000 4f000000 02007508 00000000  #...O.....u.....
 0080 00000000 4f000000 50000000 02007404  ....O...P.....t.
 0090 50000000 52000000 02007408 52000000  P...R.....t.R...
 00a0 ad000000 02007508 00000000 00000000  ......u.........

Disassembly of section .init:

0804829c <_init>:
 804829c:	55                   	push   %ebp
 804829d:	89 e5                	mov    %esp,%ebp
 804829f:	53                   	push   %ebx
 80482a0:	83 ec 04             	sub    $0x4,%esp
 80482a3:	e8 00 00 00 00       	call   80482a8 <_init+0xc>
 80482a8:	5b                   	pop    %ebx
 80482a9:	81 c3 98 13 00 00    	add    $0x1398,%ebx
 80482af:	8b 93 fc ff ff ff    	mov    -0x4(%ebx),%edx
 80482b5:	85 d2                	test   %edx,%edx
 80482b7:	74 05                	je     80482be <_init+0x22>
 80482b9:	e8 1e 00 00 00       	call   80482dc <__gmon_start__@plt>
 80482be:	e8 dd 00 00 00       	call   80483a0 <frame_dummy>
 80482c3:	e8 28 02 00 00       	call   80484f0 <__do_global_ctors_aux>
 80482c8:	58                   	pop    %eax
 80482c9:	5b                   	pop    %ebx
 80482ca:	c9                   	leave  
 80482cb:	c3                   	ret    

Disassembly of section .plt:

080482cc <__gmon_start__@plt-0x10>:
 80482cc:	ff 35 44 96 04 08    	pushl  0x8049644
 80482d2:	ff 25 48 96 04 08    	jmp    *0x8049648
 80482d8:	00 00                	add    %al,(%eax)
	...

080482dc <__gmon_start__@plt>:
 80482dc:	ff 25 4c 96 04 08    	jmp    *0x804964c
 80482e2:	68 00 00 00 00       	push   $0x0
 80482e7:	e9 e0 ff ff ff       	jmp    80482cc <_init+0x30>

080482ec <__libc_start_main@plt>:
 80482ec:	ff 25 50 96 04 08    	jmp    *0x8049650
 80482f2:	68 08 00 00 00       	push   $0x8
 80482f7:	e9 d0 ff ff ff       	jmp    80482cc <_init+0x30>

080482fc <printf@plt>:
 80482fc:	ff 25 54 96 04 08    	jmp    *0x8049654
 8048302:	68 10 00 00 00       	push   $0x10
 8048307:	e9 c0 ff ff ff       	jmp    80482cc <_init+0x30>

Disassembly of section .text:

08048310 <_start>:
 8048310:	31 ed                	xor    %ebp,%ebp
 8048312:	5e                   	pop    %esi
 8048313:	89 e1                	mov    %esp,%ecx
 8048315:	83 e4 f0             	and    $0xfffffff0,%esp
 8048318:	50                   	push   %eax
 8048319:	54                   	push   %esp
 804831a:	52                   	push   %edx
 804831b:	68 80 84 04 08       	push   $0x8048480
 8048320:	68 90 84 04 08       	push   $0x8048490
 8048325:	51                   	push   %ecx
 8048326:	56                   	push   %esi
 8048327:	68 13 84 04 08       	push   $0x8048413
 804832c:	e8 bb ff ff ff       	call   80482ec <__libc_start_main@plt>
 8048331:	f4                   	hlt    
 8048332:	90                   	nop
 8048333:	90                   	nop
 8048334:	90                   	nop
 8048335:	90                   	nop
 8048336:	90                   	nop
 8048337:	90                   	nop
 8048338:	90                   	nop
 8048339:	90                   	nop
 804833a:	90                   	nop
 804833b:	90                   	nop
 804833c:	90                   	nop
 804833d:	90                   	nop
 804833e:	90                   	nop
 804833f:	90                   	nop

08048340 <__do_global_dtors_aux>:
 8048340:	55                   	push   %ebp
 8048341:	89 e5                	mov    %esp,%ebp
 8048343:	53                   	push   %ebx
 8048344:	83 ec 04             	sub    $0x4,%esp
 8048347:	80 3d 60 96 04 08 00 	cmpb   $0x0,0x8049660
 804834e:	75 3f                	jne    804838f <__do_global_dtors_aux+0x4f>
 8048350:	a1 64 96 04 08       	mov    0x8049664,%eax
 8048355:	bb 64 95 04 08       	mov    $0x8049564,%ebx
 804835a:	81 eb 60 95 04 08    	sub    $0x8049560,%ebx
 8048360:	c1 fb 02             	sar    $0x2,%ebx
 8048363:	83 eb 01             	sub    $0x1,%ebx
 8048366:	39 d8                	cmp    %ebx,%eax
 8048368:	73 1e                	jae    8048388 <__do_global_dtors_aux+0x48>
 804836a:	8d b6 00 00 00 00    	lea    0x0(%esi),%esi
 8048370:	83 c0 01             	add    $0x1,%eax
 8048373:	a3 64 96 04 08       	mov    %eax,0x8049664
 8048378:	ff 14 85 60 95 04 08 	call   *0x8049560(,%eax,4)
 804837f:	a1 64 96 04 08       	mov    0x8049664,%eax
 8048384:	39 d8                	cmp    %ebx,%eax
 8048386:	72 e8                	jb     8048370 <__do_global_dtors_aux+0x30>
 8048388:	c6 05 60 96 04 08 01 	movb   $0x1,0x8049660
 804838f:	83 c4 04             	add    $0x4,%esp
 8048392:	5b                   	pop    %ebx
 8048393:	5d                   	pop    %ebp
 8048394:	c3                   	ret    
 8048395:	8d 74 26 00          	lea    0x0(%esi,%eiz,1),%esi
 8048399:	8d bc 27 00 00 00 00 	lea    0x0(%edi,%eiz,1),%edi

080483a0 <frame_dummy>:
 80483a0:	55                   	push   %ebp
 80483a1:	89 e5                	mov    %esp,%ebp
 80483a3:	83 ec 18             	sub    $0x18,%esp
 80483a6:	a1 68 95 04 08       	mov    0x8049568,%eax
 80483ab:	85 c0                	test   %eax,%eax
 80483ad:	74 12                	je     80483c1 <frame_dummy+0x21>
 80483af:	b8 00 00 00 00       	mov    $0x0,%eax
 80483b4:	85 c0                	test   %eax,%eax
 80483b6:	74 09                	je     80483c1 <frame_dummy+0x21>
 80483b8:	c7 04 24 68 95 04 08 	movl   $0x8049568,(%esp)
 80483bf:	ff d0                	call   *%eax
 80483c1:	c9                   	leave  
 80483c2:	c3                   	ret    
 80483c3:	90                   	nop

080483c4 <sum>:
 80483c4:	55                   	push   %ebp
 80483c5:	89 e5                	mov    %esp,%ebp
 80483c7:	8b 45 0c             	mov    0xc(%ebp),%eax
 80483ca:	8b 55 08             	mov    0x8(%ebp),%edx
 80483cd:	8d 04 02             	lea    (%edx,%eax,1),%eax
 80483d0:	5d                   	pop    %ebp
 80483d1:	c3                   	ret    

080483d2 <halve>:
 80483d2:	55                   	push   %ebp
 80483d3:	89 e5                	mov    %esp,%ebp
 80483d5:	8b 45 08             	mov    0x8(%ebp),%eax
 80483d8:	89 c2                	mov    %eax,%edx
 80483da:	c1 ea 1f             	shr    $0x1f,%edx
 80483dd:	8d 04 02             	lea    (%edx,%eax,1),%eax
 80483e0:	d1 f8                	sar    %eax
 80483e2:	5d                   	pop    %ebp
 80483e3:	c3                   	ret    

080483e4 <dostuff>:
 80483e4:	55                   	push   %ebp
 80483e5:	89 e5                	mov    %esp,%ebp
 80483e7:	83 ec 08             	sub    $0x8,%esp
 80483ea:	8b 45 08             	mov    0x8(%ebp),%eax
 80483ed:	3b 45 0c             	cmp    0xc(%ebp),%eax
 80483f0:	7d 14                	jge    8048406 <dostuff+0x22>
 80483f2:	8b 45 0c             	mov    0xc(%ebp),%eax
 80483f5:	89 44 24 04          	mov    %eax,0x4(%esp)
 80483f9:	8b 45 08             	mov    0x8(%ebp),%eax
 80483fc:	89 04 24             	mov    %eax,(%esp)
 80483ff:	e8 c0 ff ff ff       	call   80483c4 <sum>
 8048404:	eb 0b                	jmp    8048411 <dostuff+0x2d>
 8048406:	8b 45 08             	mov    0x8(%ebp),%eax
 8048409:	89 04 24             	mov    %eax,(%esp)
 804840c:	e8 c1 ff ff ff       	call   80483d2 <halve>
 8048411:	c9                   	leave  
 8048412:	c3                   	ret    

08048413 <main>:
 8048413:	55                   	push   %ebp
 8048414:	89 e5                	mov    %esp,%ebp
 8048416:	83 e4 f0             	and    $0xfffffff0,%esp
 8048419:	83 ec 20             	sub    $0x20,%esp
 804841c:	83 7d 08 03          	cmpl   $0x3,0x8(%ebp)
 8048420:	75 48                	jne    804846a <main+0x57>
 8048422:	8b 45 0c             	mov    0xc(%ebp),%eax
 8048425:	83 c0 08             	add    $0x8,%eax
 8048428:	8b 00                	mov    (%eax),%eax
 804842a:	0f b6 00             	movzbl (%eax),%eax
 804842d:	0f be d0             	movsbl %al,%edx
 8048430:	8b 45 0c             	mov    0xc(%ebp),%eax
 8048433:	83 c0 04             	add    $0x4,%eax
 8048436:	8b 00                	mov    (%eax),%eax
 8048438:	0f b6 00             	movzbl (%eax),%eax
 804843b:	0f be c0             	movsbl %al,%eax
 804843e:	89 54 24 04          	mov    %edx,0x4(%esp)
 8048442:	89 04 24             	mov    %eax,(%esp)
 8048445:	e8 9a ff ff ff       	call   80483e4 <dostuff>
 804844a:	89 44 24 1c          	mov    %eax,0x1c(%esp)
 804844e:	b8 40 85 04 08       	mov    $0x8048540,%eax
 8048453:	8b 54 24 1c          	mov    0x1c(%esp),%edx
 8048457:	89 54 24 04          	mov    %edx,0x4(%esp)
 804845b:	89 04 24             	mov    %eax,(%esp)
 804845e:	e8 99 fe ff ff       	call   80482fc <printf@plt>
 8048463:	b8 00 00 00 00       	mov    $0x0,%eax
 8048468:	eb 05                	jmp    804846f <main+0x5c>
 804846a:	b8 01 00 00 00       	mov    $0x1,%eax
 804846f:	c9                   	leave  
 8048470:	c3                   	ret    
 8048471:	90                   	nop
 8048472:	90                   	nop
 8048473:	90                   	nop
 8048474:	90                   	nop
 8048475:	90                   	nop
 8048476:	90                   	nop
 8048477:	90                   	nop
 8048478:	90                   	nop
 8048479:	90                   	nop
 804847a:	90                   	nop
 804847b:	90                   	nop
 804847c:	90                   	nop
 804847d:	90                   	nop
 804847e:	90                   	nop
 804847f:	90                   	nop

08048480 <__libc_csu_fini>:
 8048480:	55                   	push   %ebp
 8048481:	89 e5                	mov    %esp,%ebp
 8048483:	5d                   	pop    %ebp
 8048484:	c3                   	ret    
 8048485:	8d 74 26 00          	lea    0x0(%esi,%eiz,1),%esi
 8048489:	8d bc 27 00 00 00 00 	lea    0x0(%edi,%eiz,1),%edi

08048490 <__libc_csu_init>:
 8048490:	55                   	push   %ebp
 8048491:	89 e5                	mov    %esp,%ebp
 8048493:	57                   	push   %edi
 8048494:	56                   	push   %esi
 8048495:	53                   	push   %ebx
 8048496:	e8 4f 00 00 00       	call   80484ea <__i686.get_pc_thunk.bx>
 804849b:	81 c3 a5 11 00 00    	add    $0x11a5,%ebx
 80484a1:	83 ec 1c             	sub    $0x1c,%esp
 80484a4:	e8 f3 fd ff ff       	call   804829c <_init>
 80484a9:	8d bb 18 ff ff ff    	lea    -0xe8(%ebx),%edi
 80484af:	8d 83 18 ff ff ff    	lea    -0xe8(%ebx),%eax
 80484b5:	29 c7                	sub    %eax,%edi
 80484b7:	c1 ff 02             	sar    $0x2,%edi
 80484ba:	85 ff                	test   %edi,%edi
 80484bc:	74 24                	je     80484e2 <__libc_csu_init+0x52>
 80484be:	31 f6                	xor    %esi,%esi
 80484c0:	8b 45 10             	mov    0x10(%ebp),%eax
 80484c3:	89 44 24 08          	mov    %eax,0x8(%esp)
 80484c7:	8b 45 0c             	mov    0xc(%ebp),%eax
 80484ca:	89 44 24 04          	mov    %eax,0x4(%esp)
 80484ce:	8b 45 08             	mov    0x8(%ebp),%eax
 80484d1:	89 04 24             	mov    %eax,(%esp)
 80484d4:	ff 94 b3 18 ff ff ff 	call   *-0xe8(%ebx,%esi,4)
 80484db:	83 c6 01             	add    $0x1,%esi
 80484de:	39 fe                	cmp    %edi,%esi
 80484e0:	72 de                	jb     80484c0 <__libc_csu_init+0x30>
 80484e2:	83 c4 1c             	add    $0x1c,%esp
 80484e5:	5b                   	pop    %ebx
 80484e6:	5e                   	pop    %esi
 80484e7:	5f                   	pop    %edi
 80484e8:	5d                   	pop    %ebp
 80484e9:	c3                   	ret    

080484ea <__i686.get_pc_thunk.bx>:
 80484ea:	8b 1c 24             	mov    (%esp),%ebx
 80484ed:	c3                   	ret    
 80484ee:	90                   	nop
 80484ef:	90                   	nop

080484f0 <__do_global_ctors_aux>:
 80484f0:	55                   	push   %ebp
 80484f1:	89 e5                	mov    %esp,%ebp
 80484f3:	53                   	push   %ebx
 80484f4:	83 ec 04             	sub    $0x4,%esp
 80484f7:	a1 58 95 04 08       	mov    0x8049558,%eax
 80484fc:	83 f8 ff             	cmp    $0xffffffff,%eax
 80484ff:	74 13                	je     8048514 <__do_global_ctors_aux+0x24>
 8048501:	bb 58 95 04 08       	mov    $0x8049558,%ebx
 8048506:	66 90                	xchg   %ax,%ax
 8048508:	83 eb 04             	sub    $0x4,%ebx
 804850b:	ff d0                	call   *%eax
 804850d:	8b 03                	mov    (%ebx),%eax
 804850f:	83 f8 ff             	cmp    $0xffffffff,%eax
 8048512:	75 f4                	jne    8048508 <__do_global_ctors_aux+0x18>
 8048514:	83 c4 04             	add    $0x4,%esp
 8048517:	5b                   	pop    %ebx
 8048518:	5d                   	pop    %ebp
 8048519:	c3                   	ret    
 804851a:	90                   	nop
 804851b:	90                   	nop

Disassembly of section .fini:

0804851c <_fini>:
 804851c:	55                   	push   %ebp
 804851d:	89 e5                	mov    %esp,%ebp
 804851f:	53                   	push   %ebx
 8048520:	83 ec 04             	sub    $0x4,%esp
 8048523:	e8 00 00 00 00       	call   8048528 <_fini+0xc>
 8048528:	5b                   	pop    %ebx
 8048529:	81 c3 18 11 00 00    	add    $0x1118,%ebx
 804852f:	e8 0c fe ff ff       	call   8048340 <__do_global_dtors_aux>
 8048534:	59                   	pop    %ecx
 8048535:	5b                   	pop    %ebx
 8048536:	c9                   	leave  
 8048537:	c3                   	ret    
